target datalayout = "e-m:e-p270:32:32-p271:32:32-p272:64:64-i64:64-i128:128-f80:128-n8:16:32:64-S128"
target triple = "x86_64-pc-linux-gnu"

%struct._object = type { %union.anon, ptr }
%union.anon = type { i64 }
%struct.anon = type { i32, i32 }

@.str.3 = private unnamed_addr constant [12 x i8] c"iter_unpack\00", align 1

; Function Attrs: alwaysinline nounwind uwtable
define internal i32 @_Py_IsImmortal(ptr noundef %0) #4 {
  %2 = alloca ptr, align 8
  store ptr %0, ptr %2, align 8, !tbaa !3
  %3 = load ptr, ptr %2, align 8, !tbaa !3
  %4 = getelementptr inbounds nuw %struct._object, ptr %3, i32 0, i32 0
  %5 = getelementptr inbounds nuw %struct.anon, ptr %4, i32 0, i32 0
  %6 = load i32, ptr %5, align 8, !tbaa !32
  %7 = icmp slt i32 %6, 0
  %8 = zext i1 %7 to i32
  ret i32 %8
}

; Function Attrs: alwaysinline nounwind uwtable
define internal void @Py_DECREF(ptr noundef %0) #4 {
  %2 = alloca ptr, align 8
  store ptr %0, ptr %2, align 8, !tbaa !3
  %3 = load ptr, ptr %2, align 8, !tbaa !3
  %4 = call i32 @_Py_IsImmortal(ptr noundef %3)
  %5 = icmp ne i32 %4, 0
  br i1 %5, label %6, label %7

6:                                                ; preds = %1
  br label %16

7:                                                ; preds = %1
  %8 = load ptr, ptr %2, align 8, !tbaa !3
  %9 = getelementptr inbounds nuw %struct._object, ptr %8, i32 0, i32 0
  %10 = getelementptr inbounds nuw %struct.anon, ptr %9, i32 0, i32 0
  %11 = load i32, ptr %10, align 8, !tbaa !32
  %12 = add i32 %11, -1
  store i32 %12, ptr %10, align 8, !tbaa !32
  %13 = icmp eq i32 %12, 0
  br i1 %13, label %14, label %16

14:                                               ; preds = %7
  %15 = load ptr, ptr %2, align 8, !tbaa !3
  call void @_Py_Dealloc(ptr noundef %15)
  br label %16

16:                                               ; preds = %6, %14, %7
  ret void
}

; Function Attrs: inlinehint nounwind uwtable
define internal void @Py_XDECREF(ptr noundef %0) #2 {
  %2 = alloca ptr, align 8
  store ptr %0, ptr %2, align 8, !tbaa !3
  %3 = load ptr, ptr %2, align 8, !tbaa !3
  %4 = icmp ne ptr %3, null
  br i1 %4, label %5, label %7

5:                                                ; preds = %1
  %6 = load ptr, ptr %2, align 8, !tbaa !3
  call void @Py_DECREF(ptr noundef %6)
  br label %7

7:                                                ; preds = %5, %1
  ret void
}

; Function Attrs: nounwind uwtable
define internal ptr @iter_unpack_impl(ptr noundef %0, ptr noundef %1, ptr noundef %2) #0 {
  %4 = alloca ptr, align 8
  %5 = alloca ptr, align 8
  %6 = alloca ptr, align 8
  store ptr %0, ptr %4, align 8, !tbaa !3
  store ptr %1, ptr %5, align 8, !tbaa !8
  store ptr %2, ptr %6, align 8, !tbaa !3
  %7 = load ptr, ptr %5, align 8, !tbaa !8
  %8 = load ptr, ptr %6, align 8, !tbaa !3
  %9 = call ptr @Struct_iter_unpack(ptr noundef %7, ptr noundef %8)
  ret ptr %9
}

; Function Attrs: nounwind uwtable
define internal ptr @iter_unpack(ptr noundef %0, ptr noundef %1, i64 noundef %2) #0 {
  %4 = alloca ptr, align 8
  %5 = alloca ptr, align 8
  %6 = alloca i64, align 8
  %7 = alloca ptr, align 8
  %8 = alloca ptr, align 8
  %9 = alloca ptr, align 8
  store ptr %0, ptr %4, align 8, !tbaa !3
  store ptr %1, ptr %5, align 8, !tbaa !16
  store i64 %2, ptr %6, align 8, !tbaa !18
  call void @llvm.lifetime.start.p0(i64 8, ptr %7) #8
  store ptr null, ptr %7, align 8, !tbaa !3
  call void @llvm.lifetime.start.p0(i64 8, ptr %8) #8
  store ptr null, ptr %8, align 8, !tbaa !8
  call void @llvm.lifetime.start.p0(i64 8, ptr %9) #8
  %10 = load i64, ptr %6, align 8, !tbaa !18
  %11 = icmp sle i64 2, %10
  br i1 %11, label %12, label %15

12:                                               ; preds = %3
  %13 = load i64, ptr %6, align 8, !tbaa !18
  %14 = icmp sle i64 %13, 2
  br i1 %14, label %20, label %15

15:                                               ; preds = %12, %3
  %16 = load i64, ptr %6, align 8, !tbaa !18
  %17 = call i32 @_PyArg_CheckPositional(ptr noundef @.str.3, i64 noundef %16, i64 noundef 2, i64 noundef 2)
  %18 = icmp ne i32 %17, 0
  br i1 %18, label %20, label %19

19:                                               ; preds = %15
  br label %36

20:                                               ; preds = %15, %12
  %21 = load ptr, ptr %4, align 8, !tbaa !3
  %22 = load ptr, ptr %5, align 8, !tbaa !16
  %23 = getelementptr ptr, ptr %22, i64 0
  %24 = load ptr, ptr %23, align 8, !tbaa !3
  %25 = call i32 @cache_struct_converter(ptr noundef %21, ptr noundef %24, ptr noundef %8)
  %26 = icmp ne i32 %25, 0
  br i1 %26, label %28, label %27

27:                                               ; preds = %20
  br label %36

28:                                               ; preds = %20
  %29 = load ptr, ptr %5, align 8, !tbaa !16
  %30 = getelementptr ptr, ptr %29, i64 1
  %31 = load ptr, ptr %30, align 8, !tbaa !3
  store ptr %31, ptr %9, align 8, !tbaa !3
  %32 = load ptr, ptr %4, align 8, !tbaa !3
  %33 = load ptr, ptr %8, align 8, !tbaa !8
  %34 = load ptr, ptr %9, align 8, !tbaa !3
  %35 = call ptr @iter_unpack_impl(ptr noundef %32, ptr noundef %33, ptr noundef %34)
  store ptr %35, ptr %7, align 8, !tbaa !3
  br label %36

36:                                               ; preds = %28, %27, %19
  %37 = load ptr, ptr %8, align 8, !tbaa !8
  call void @Py_XDECREF(ptr noundef %37)
  %38 = load ptr, ptr %7, align 8, !tbaa !3
  call void @llvm.lifetime.end.p0(i64 8, ptr %9) #8
  call void @llvm.lifetime.end.p0(i64 8, ptr %8) #8
  call void @llvm.lifetime.end.p0(i64 8, ptr %7) #8
  ret ptr %38
}