; Function Attrs: nounwind uwtable
define internal ptr @iter_unpack(ptr noundef readonly captures(none) %0, ptr noundef readonly captures(none) %1, i64 noundef %2) #0 {
  %4 = alloca ptr, align 8
  call void @llvm.lifetime.start.p0(i64 8, ptr nonnull %4) #7
  store ptr null, ptr %4, align 8, !tbaa !19
  %or.cond = icmp eq i64 %2, 2
  br i1 %or.cond, label %7, label %5

5:                                                ; preds = %3
  %6 = tail call i32 @_PyArg_CheckPositional(ptr noundef nonnull @.str.3, i64 noundef %2, i64 noundef 2, i64 noundef 2) #7
  %.not = icmp eq i32 %6, 0
  br i1 %.not, label %Py_XDECREF.exit, label %7

7:                                                ; preds = %3, %5
  %8 = load ptr, ptr %1, align 8, !tbaa !17
  %9 = getelementptr i8, ptr %0, i64 32
  %.val = load ptr, ptr %9, align 8, !tbaa !3
  %10 = call fastcc i32 @cache_struct_converter(ptr %.val, ptr noundef %8, ptr noundef %4)
  %.not9 = icmp eq i32 %10, 0
  br i1 %.not9, label %thread-pre-split, label %11

11:                                               ; preds = %7
  %12 = getelementptr i8, ptr %1, i64 8
  %13 = load ptr, ptr %12, align 8, !tbaa !17
  %14 = load ptr, ptr %4, align 8, !tbaa !19
  %15 = tail call ptr @Struct_iter_unpack(ptr noundef %14, ptr noundef %13)
  br label %16

thread-pre-split:                                 ; preds = %7
  %.pr = load ptr, ptr %4, align 8, !tbaa !19
  br label %16

16:                                               ; preds = %thread-pre-split, %11
  %17 = phi ptr [ %.pr, %thread-pre-split ], [ %14, %11 ]
  %.0 = phi ptr [ null, %thread-pre-split ], [ %15, %11 ]
  %.not.i = icmp eq ptr %17, null
  br i1 %.not.i, label %Py_XDECREF.exit, label %18

18:                                               ; preds = %16
  %19 = load i32, ptr %17, align 8, !tbaa !18
  %.not.i.i = icmp sgt i32 %19, -1
  br i1 %.not.i.i, label %20, label %Py_XDECREF.exit

20:                                               ; preds = %18
  %21 = add nsw i32 %19, -1
  store i32 %21, ptr %17, align 8, !tbaa !18
  %22 = icmp eq i32 %21, 0
  br i1 %22, label %23, label %Py_XDECREF.exit

23:                                               ; preds = %20
  tail call void @_Py_Dealloc(ptr noundef nonnull %17) #7
  br label %Py_XDECREF.exit

Py_XDECREF.exit:                                  ; preds = %5, %16, %18, %20, %23
  %.012 = phi ptr [ %.0, %16 ], [ %.0, %18 ], [ %.0, %20 ], [ %.0, %23 ], [ null, %5 ]
  call void @llvm.lifetime.end.p0(i64 8, ptr nonnull %4) #7
  ret ptr %.012
}